; ModuleID = '55/1101.c'
source_filename = "55/1101.c"
target datalayout = "e-m:e-p270:32:32-p271:32:32-p272:64:64-i64:64-f80:128-n8:16:32:64-S128"
target triple = "x86_64-pc-linux-gnu"

@.str = private unnamed_addr constant [9 x i8] c"%d %s %d\00", align 1
@.str.1 = private unnamed_addr constant [3 x i8] c"0\0A\00", align 1
@.str.2 = private unnamed_addr constant [3 x i8] c"%s\00", align 1

; Function Attrs: noinline nounwind uwtable
define dso_local i32 @main() #0 {
  %1 = alloca i32, align 4
  %2 = alloca i32, align 4
  %3 = alloca i32, align 4
  %4 = alloca i32, align 4
  %5 = alloca i32, align 4
  %6 = alloca i32, align 4
  %7 = alloca i32, align 4
  %8 = alloca i32, align 4
  %9 = alloca [40 x i8], align 16
  %10 = alloca [40 x i8], align 16
  %11 = alloca [40 x i8], align 16
  store i32 0, i32* %1, align 4
  %12 = getelementptr inbounds [40 x i8], [40 x i8]* %9, i64 0, i64 0
  %13 = call i32 (i8*, ...) @__isoc99_scanf(i8* getelementptr inbounds ([9 x i8], [9 x i8]* @.str, i64 0, i64 0), i32* %2, i8* %12, i32* %3)
  %14 = getelementptr inbounds [40 x i8], [40 x i8]* %9, i64 0, i64 0
  %15 = call i64 @strlen(i8* %14) #3
  %16 = trunc i64 %15 to i32
  store i32 %16, i32* %8, align 4
  %17 = getelementptr inbounds [40 x i8], [40 x i8]* %9, i64 0, i64 0
  %18 = load i8, i8* %17, align 16
  %19 = sext i8 %18 to i32
  %20 = icmp eq i32 %19, 48
  br i1 %20, label %21, label %23

21:                                               ; preds = %0
  %22 = call i32 (i8*, ...) @printf(i8* getelementptr inbounds ([3 x i8], [3 x i8]* @.str.1, i64 0, i64 0))
  br label %174

23:                                               ; preds = %0
  store i32 0, i32* %6, align 4
  store i32 0, i32* %5, align 4
  br label %24

24:                                               ; preds = %99, %23
  %25 = load i32, i32* %6, align 4
  %26 = load i32, i32* %8, align 4
  %27 = icmp slt i32 %25, %26
  br i1 %27, label %28, label %102

28:                                               ; preds = %24
  %29 = load i32, i32* %6, align 4
  %30 = sext i32 %29 to i64
  %31 = getelementptr inbounds [40 x i8], [40 x i8]* %9, i64 0, i64 %30
  %32 = load i8, i8* %31, align 1
  %33 = sext i8 %32 to i32
  %34 = icmp sge i32 %33, 97
  br i1 %34, label %35, label %50

35:                                               ; preds = %28
  %36 = load i32, i32* %6, align 4
  %37 = sext i32 %36 to i64
  %38 = getelementptr inbounds [40 x i8], [40 x i8]* %9, i64 0, i64 %37
  %39 = load i8, i8* %38, align 1
  %40 = sext i8 %39 to i32
  %41 = icmp sle i32 %40, 122
  br i1 %41, label %42, label %50

42:                                               ; preds = %35
  %43 = load i32, i32* %6, align 4
  %44 = sext i32 %43 to i64
  %45 = getelementptr inbounds [40 x i8], [40 x i8]* %9, i64 0, i64 %44
  %46 = load i8, i8* %45, align 1
  %47 = sext i8 %46 to i32
  %48 = sub nsw i32 %47, 97
  %49 = add nsw i32 %48, 10
  store i32 %49, i32* %4, align 4
  br label %50

50:                                               ; preds = %42, %35, %28
  %51 = load i32, i32* %6, align 4
  %52 = sext i32 %51 to i64
  %53 = getelementptr inbounds [40 x i8], [40 x i8]* %9, i64 0, i64 %52
  %54 = load i8, i8* %53, align 1
  %55 = sext i8 %54 to i32
  %56 = icmp sge i32 %55, 65
  br i1 %56, label %57, label %72

57:                                               ; preds = %50
  %58 = load i32, i32* %6, align 4
  %59 = sext i32 %58 to i64
  %60 = getelementptr inbounds [40 x i8], [40 x i8]* %9, i64 0, i64 %59
  %61 = load i8, i8* %60, align 1
  %62 = sext i8 %61 to i32
  %63 = icmp sle i32 %62, 90
  br i1 %63, label %64, label %72

64:                                               ; preds = %57
  %65 = load i32, i32* %6, align 4
  %66 = sext i32 %65 to i64
  %67 = getelementptr inbounds [40 x i8], [40 x i8]* %9, i64 0, i64 %66
  %68 = load i8, i8* %67, align 1
  %69 = sext i8 %68 to i32
  %70 = sub nsw i32 %69, 65
  %71 = add nsw i32 %70, 10
  store i32 %71, i32* %4, align 4
  br label %72

72:                                               ; preds = %64, %57, %50
  %73 = load i32, i32* %6, align 4
  %74 = sext i32 %73 to i64
  %75 = getelementptr inbounds [40 x i8], [40 x i8]* %9, i64 0, i64 %74
  %76 = load i8, i8* %75, align 1
  %77 = sext i8 %76 to i32
  %78 = icmp sge i32 %77, 48
  br i1 %78, label %79, label %93

79:                                               ; preds = %72
  %80 = load i32, i32* %6, align 4
  %81 = sext i32 %80 to i64
  %82 = getelementptr inbounds [40 x i8], [40 x i8]* %9, i64 0, i64 %81
  %83 = load i8, i8* %82, align 1
  %84 = sext i8 %83 to i32
  %85 = icmp sle i32 %84, 57
  br i1 %85, label %86, label %93

86:                                               ; preds = %79
  %87 = load i32, i32* %6, align 4
  %88 = sext i32 %87 to i64
  %89 = getelementptr inbounds [40 x i8], [40 x i8]* %9, i64 0, i64 %88
  %90 = load i8, i8* %89, align 1
  %91 = sext i8 %90 to i32
  %92 = sub nsw i32 %91, 48
  store i32 %92, i32* %4, align 4
  br label %93

93:                                               ; preds = %86, %79, %72
  %94 = load i32, i32* %4, align 4
  %95 = load i32, i32* %5, align 4
  %96 = load i32, i32* %2, align 4
  %97 = mul nsw i32 %95, %96
  %98 = add nsw i32 %94, %97
  store i32 %98, i32* %5, align 4
  br label %99

99:                                               ; preds = %93
  %100 = load i32, i32* %6, align 4
  %101 = add nsw i32 %100, 1
  store i32 %101, i32* %6, align 4
  br label %24

102:                                              ; preds = %24
  store i32 0, i32* %7, align 4
  br label %103

103:                                              ; preds = %117, %102
  %104 = load i32, i32* %5, align 4
  %105 = icmp ne i32 %104, 0
  br i1 %105, label %106, label %120

106:                                              ; preds = %103
  %107 = load i32, i32* %5, align 4
  %108 = load i32, i32* %3, align 4
  %109 = srem i32 %107, %108
  %110 = trunc i32 %109 to i8
  %111 = load i32, i32* %7, align 4
  %112 = sext i32 %111 to i64
  %113 = getelementptr inbounds [40 x i8], [40 x i8]* %10, i64 0, i64 %112
  store i8 %110, i8* %113, align 1
  %114 = load i32, i32* %5, align 4
  %115 = load i32, i32* %3, align 4
  %116 = sdiv i32 %114, %115
  store i32 %116, i32* %5, align 4
  br label %117

117:                                              ; preds = %106
  %118 = load i32, i32* %7, align 4
  %119 = add nsw i32 %118, 1
  store i32 %119, i32* %7, align 4
  br label %103

120:                                              ; preds = %103
  %121 = load i32, i32* %7, align 4
  %122 = sext i32 %121 to i64
  %123 = getelementptr inbounds [40 x i8], [40 x i8]* %10, i64 0, i64 %122
  store i8 0, i8* %123, align 1
  store i32 0, i32* %6, align 4
  br label %124

124:                                              ; preds = %165, %120
  %125 = load i32, i32* %6, align 4
  %126 = load i32, i32* %7, align 4
  %127 = icmp slt i32 %125, %126
  br i1 %127, label %128, label %168

128:                                              ; preds = %124
  %129 = load i32, i32* %6, align 4
  %130 = sext i32 %129 to i64
  %131 = getelementptr inbounds [40 x i8], [40 x i8]* %10, i64 0, i64 %130
  %132 = load i8, i8* %131, align 1
  %133 = sext i8 %132 to i32
  %134 = icmp slt i32 %133, 10
  br i1 %134, label %135, label %149

135:                                              ; preds = %128
  %136 = load i32, i32* %6, align 4
  %137 = sext i32 %136 to i64
  %138 = getelementptr inbounds [40 x i8], [40 x i8]* %10, i64 0, i64 %137
  %139 = load i8, i8* %138, align 1
  %140 = sext i8 %139 to i32
  %141 = add nsw i32 %140, 48
  %142 = trunc i32 %141 to i8
  %143 = load i32, i32* %7, align 4
  %144 = sub nsw i32 %143, 1
  %145 = load i32, i32* %6, align 4
  %146 = sub nsw i32 %144, %145
  %147 = sext i32 %146 to i64
  %148 = getelementptr inbounds [40 x i8], [40 x i8]* %11, i64 0, i64 %147
  store i8 %142, i8* %148, align 1
  br label %164

149:                                              ; preds = %128
  %150 = load i32, i32* %6, align 4
  %151 = sext i32 %150 to i64
  %152 = getelementptr inbounds [40 x i8], [40 x i8]* %10, i64 0, i64 %151
  %153 = load i8, i8* %152, align 1
  %154 = sext i8 %153 to i32
  %155 = sub nsw i32 %154, 10
  %156 = add nsw i32 %155, 65
  %157 = trunc i32 %156 to i8
  %158 = load i32, i32* %7, align 4
  %159 = sub nsw i32 %158, 1
  %160 = load i32, i32* %6, align 4
  %161 = sub nsw i32 %159, %160
  %162 = sext i32 %161 to i64
  %163 = getelementptr inbounds [40 x i8], [40 x i8]* %11, i64 0, i64 %162
  store i8 %157, i8* %163, align 1
  br label %164

164:                                              ; preds = %149, %135
  br label %165

165:                                              ; preds = %164
  %166 = load i32, i32* %6, align 4
  %167 = add nsw i32 %166, 1
  store i32 %167, i32* %6, align 4
  br label %124

168:                                              ; preds = %124
  %169 = load i32, i32* %7, align 4
  %170 = sext i32 %169 to i64
  %171 = getelementptr inbounds [40 x i8], [40 x i8]* %11, i64 0, i64 %170
  store i8 0, i8* %171, align 1
  %172 = getelementptr inbounds [40 x i8], [40 x i8]* %11, i64 0, i64 0
  %173 = call i32 (i8*, ...) @printf(i8* getelementptr inbounds ([3 x i8], [3 x i8]* @.str.2, i64 0, i64 0), i8* %172)
  br label %174

174:                                              ; preds = %168, %21
  %175 = call i32 @getchar()
  %176 = call i32 @getchar()
  %177 = load i32, i32* %1, align 4
  ret i32 %177
}

declare dso_local i32 @__isoc99_scanf(i8*, ...) #1

; Function Attrs: nounwind readonly
declare dso_local i64 @strlen(i8*) #2

declare dso_local i32 @printf(i8*, ...) #1

declare dso_local i32 @getchar() #1


!llvm.module.flags = !{!0}
!llvm.ident = !{!1}

!0 = !{i32 1, !"wchar_size", i32 4}
!1 = !{!"clang version 10.0.0-4ubuntu1 "}
